; Function Attrs: mustprogress nounwind uwtable
define hidden void @_ZN13MemoryService26add_metaspace_memory_poolsEv() local_unnamed_addr #2 align 2 {
  %1 = tail call noundef ptr @_ZN13MemoryManager28get_metaspace_memory_managerEv() #8
  %2 = tail call noundef ptr @_Z12AllocateHeapm8MEMFLAGSN17AllocFailStrategy13AllocFailEnumE(i64 noundef 208, i8 noundef zeroext 9, i32 noundef 0) #8
  tail call void @_ZN13MetaspacePoolC1Ev(ptr noundef nonnull align 8 dereferenceable(201) %2) #8
  store ptr %2, ptr @_ZN13MemoryService15_metaspace_poolE, align 8
  %3 = tail call noundef i32 @_ZN13MemoryManager8add_poolEP10MemoryPool(ptr noundef nonnull align 8 dereferenceable(113) %1, ptr noundef nonnull %2) #8
  %4 = load ptr, ptr @_ZN13MemoryService11_pools_listE, align 8
  %5 = load i32, ptr %4, align 8
  %6 = getelementptr inbounds i8, ptr %4, i64 4
  %7 = load i32, ptr %6, align 4
  %8 = icmp eq i32 %5, %7
  br i1 %8, label %9, label %_ZN26GrowableArrayWithAllocatorIP10MemoryPool13GrowableArrayIS1_EE6appendERKS1_.exit

9:                                                ; preds = %0
  %10 = add nsw i32 %5, 1
  %11 = icmp sgt i32 %5, -1
  %12 = xor i32 %5, -2147483648
  %13 = and i32 %12, %10
  %14 = icmp eq i32 %13, 0
  %15 = and i1 %11, %14
  %16 = tail call range(i32 0, 33) i32 @llvm.ctlz.i32(i32 %10, i1 true)
  %17 = sub nuw nsw i32 32, %16
  %18 = shl nuw i32 1, %17
  %.0.i.i.i.i = select i1 %15, i32 %10, i32 %18
  tail call void @_ZN26GrowableArrayWithAllocatorIP10MemoryPool13GrowableArrayIS1_EE9expand_toEi(ptr noundef nonnull align 8 dereferenceable(16) %4, i32 noundef %.0.i.i.i.i)
  %.pre.i = load i32, ptr %4, align 8
  br label %_ZN26GrowableArrayWithAllocatorIP10MemoryPool13GrowableArrayIS1_EE6appendERKS1_.exit

_ZN26GrowableArrayWithAllocatorIP10MemoryPool13GrowableArrayIS1_EE6appendERKS1_.exit: ; preds = %0, %9
  %19 = phi i32 [ %.pre.i, %9 ], [ %5, %0 ]
  %20 = add nsw i32 %19, 1
  store i32 %20, ptr %4, align 8
  %21 = load ptr, ptr @_ZN13MemoryService15_metaspace_poolE, align 8
  %22 = getelementptr inbounds i8, ptr %4, i64 8
  %23 = load ptr, ptr %22, align 8
  %24 = sext i32 %19 to i64
  %25 = getelementptr inbounds ptr, ptr %23, i64 %24
  store ptr %21, ptr %25, align 8
  %26 = load i8, ptr @UseCompressedClassPointers, align 1
  %27 = trunc i8 %26 to i1
  br i1 %27, label %28, label %53

28:                                               ; preds = %_ZN26GrowableArrayWithAllocatorIP10MemoryPool13GrowableArrayIS1_EE6appendERKS1_.exit
  %29 = tail call noundef ptr @_Z12AllocateHeapm8MEMFLAGSN17AllocFailStrategy13AllocFailEnumE(i64 noundef 208, i8 noundef zeroext 9, i32 noundef 0) #8
  tail call void @_ZN24CompressedKlassSpacePoolC1Ev(ptr noundef nonnull align 8 dereferenceable(201) %29) #8
  store ptr %29, ptr @_ZN13MemoryService22_compressed_class_poolE, align 8
  %30 = tail call noundef i32 @_ZN13MemoryManager8add_poolEP10MemoryPool(ptr noundef nonnull align 8 dereferenceable(113) %1, ptr noundef nonnull %29) #8
  %31 = load ptr, ptr @_ZN13MemoryService11_pools_listE, align 8
  %32 = load i32, ptr %31, align 8
  %33 = getelementptr inbounds i8, ptr %31, i64 4
  %34 = load i32, ptr %33, align 4
  %35 = icmp eq i32 %32, %34
  br i1 %35, label %36, label %_ZN26GrowableArrayWithAllocatorIP10MemoryPool13GrowableArrayIS1_EE6appendERKS1_.exit8

36:                                               ; preds = %28
  %37 = add nsw i32 %32, 1
  %38 = icmp sgt i32 %32, -1
  %39 = xor i32 %32, -2147483648
  %40 = and i32 %39, %37
  %41 = icmp eq i32 %40, 0
  %42 = and i1 %38, %41
  %43 = tail call range(i32 0, 33) i32 @llvm.ctlz.i32(i32 %37, i1 true)
  %44 = sub nuw nsw i32 32, %43
  %45 = shl nuw i32 1, %44
  %.0.i.i.i.i6 = select i1 %42, i32 %37, i32 %45
  tail call void @_ZN26GrowableArrayWithAllocatorIP10MemoryPool13GrowableArrayIS1_EE9expand_toEi(ptr noundef nonnull align 8 dereferenceable(16) %31, i32 noundef %.0.i.i.i.i6)
  %.pre.i7 = load i32, ptr %31, align 8
  br label %_ZN26GrowableArrayWithAllocatorIP10MemoryPool13GrowableArrayIS1_EE6appendERKS1_.exit8

_ZN26GrowableArrayWithAllocatorIP10MemoryPool13GrowableArrayIS1_EE6appendERKS1_.exit8: ; preds = %28, %36
  %46 = phi i32 [ %.pre.i7, %36 ], [ %32, %28 ]
  %47 = add nsw i32 %46, 1
  store i32 %47, ptr %31, align 8
  %48 = load ptr, ptr @_ZN13MemoryService22_compressed_class_poolE, align 8
  %49 = getelementptr inbounds i8, ptr %31, i64 8
  %50 = load ptr, ptr %49, align 8
  %51 = sext i32 %46 to i64
  %52 = getelementptr inbounds ptr, ptr %50, i64 %51
  store ptr %48, ptr %52, align 8
  br label %53

53:                                               ; preds = %_ZN26GrowableArrayWithAllocatorIP10MemoryPool13GrowableArrayIS1_EE6appendERKS1_.exit8, %_ZN26GrowableArrayWithAllocatorIP10MemoryPool13GrowableArrayIS1_EE6appendERKS1_.exit
  %54 = load ptr, ptr @_ZN13MemoryService14_managers_listE, align 8
  %55 = load i32, ptr %54, align 8
  %56 = getelementptr inbounds i8, ptr %54, i64 4
  %57 = load i32, ptr %56, align 4
  %58 = icmp eq i32 %55, %57
  br i1 %58, label %59, label %_ZN26GrowableArrayWithAllocatorIP13MemoryManager13GrowableArrayIS1_EE6appendERKS1_.exit

59:                                               ; preds = %53
  %60 = add nsw i32 %55, 1
  %61 = icmp sgt i32 %55, -1
  %62 = xor i32 %55, -2147483648
  %63 = and i32 %62, %60
  %64 = icmp eq i32 %63, 0
  %65 = and i1 %61, %64
  %66 = tail call range(i32 0, 33) i32 @llvm.ctlz.i32(i32 %60, i1 true)
  %67 = sub nuw nsw i32 32, %66
  %68 = shl nuw i32 1, %67
  %.0.i.i.i.i9 = select i1 %65, i32 %60, i32 %68
  tail call void @_ZN26GrowableArrayWithAllocatorIP13MemoryManager13GrowableArrayIS1_EE9expand_toEi(ptr noundef nonnull align 8 dereferenceable(16) %54, i32 noundef %.0.i.i.i.i9)
  %.pre.i10 = load i32, ptr %54, align 8
  br label %_ZN26GrowableArrayWithAllocatorIP13MemoryManager13GrowableArrayIS1_EE6appendERKS1_.exit

_ZN26GrowableArrayWithAllocatorIP13MemoryManager13GrowableArrayIS1_EE6appendERKS1_.exit: ; preds = %53, %59
  %69 = phi i32 [ %.pre.i10, %59 ], [ %55, %53 ]
  %70 = add nsw i32 %69, 1
  store i32 %70, ptr %54, align 8
  %71 = getelementptr inbounds i8, ptr %54, i64 8
  %72 = load ptr, ptr %71, align 8
  %73 = sext i32 %69 to i64
  %74 = getelementptr inbounds ptr, ptr %72, i64 %73
  store ptr %1, ptr %74, align 8
  ret void
}